; Function Attrs: mustprogress uwtable
define hidden void @_ZN11func_interp16insert_new_entryEPKP4exprS1_(ptr noundef nonnull align 8 dereferenceable(56) %this, ptr nocapture noundef readonly %args, ptr noundef %r) local_unnamed_addr #3 align 2 {
entry:
  %0 = load ptr, ptr %this, align 8
  %m_interp.i = getelementptr inbounds i8, ptr %this, i64 40
  %1 = load ptr, ptr %m_interp.i, align 8
  %tobool.not.i.i = icmp eq ptr %1, null
  br i1 %tobool.not.i.i, label %_ZN11ast_manager7dec_refEP3ast.exit.i, label %if.then.i.i

if.then.i.i:                                      ; preds = %entry
  %m_ref_count.i.i.i = getelementptr inbounds i8, ptr %1, i64 8
  %2 = load i32, ptr %m_ref_count.i.i.i, align 4
  %dec.i.i.i = add i32 %2, -1
  store i32 %dec.i.i.i, ptr %m_ref_count.i.i.i, align 4
  %cmp.i.i = icmp eq i32 %dec.i.i.i, 0
  br i1 %cmp.i.i, label %if.then2.i.i, label %_ZN11ast_manager7dec_refEP3ast.exit.i

if.then2.i.i:                                     ; preds = %if.then.i.i
  tail call void @_ZN11ast_manager11delete_nodeEP3ast(ptr noundef nonnull align 8 dereferenceable(976) %0, ptr noundef nonnull %1)
  br label %_ZN11ast_manager7dec_refEP3ast.exit.i

_ZN11ast_manager7dec_refEP3ast.exit.i:            ; preds = %if.then2.i.i, %if.then.i.i, %entry
  %3 = load ptr, ptr %this, align 8
  %m_array_interp.i = getelementptr inbounds i8, ptr %this, i64 48
  %4 = load ptr, ptr %m_array_interp.i, align 8
  %tobool.not.i1.i = icmp eq ptr %4, null
  br i1 %tobool.not.i1.i, label %_ZN11func_interp18reset_interp_cacheEv.exit, label %if.then.i2.i

if.then.i2.i:                                     ; preds = %_ZN11ast_manager7dec_refEP3ast.exit.i
  %m_ref_count.i.i3.i = getelementptr inbounds i8, ptr %4, i64 8
  %5 = load i32, ptr %m_ref_count.i.i3.i, align 4
  %dec.i.i4.i = add i32 %5, -1
  store i32 %dec.i.i4.i, ptr %m_ref_count.i.i3.i, align 4
  %cmp.i5.i = icmp eq i32 %dec.i.i4.i, 0
  br i1 %cmp.i5.i, label %if.then2.i6.i, label %_ZN11func_interp18reset_interp_cacheEv.exit

if.then2.i6.i:                                    ; preds = %if.then.i2.i
  tail call void @_ZN11ast_manager11delete_nodeEP3ast(ptr noundef nonnull align 8 dereferenceable(976) %3, ptr noundef nonnull %4)
  br label %_ZN11func_interp18reset_interp_cacheEv.exit

_ZN11func_interp18reset_interp_cacheEv.exit:      ; preds = %_ZN11ast_manager7dec_refEP3ast.exit.i, %if.then.i2.i, %if.then2.i6.i
  tail call void @llvm.memset.p0.i64(ptr noundef nonnull align 8 dereferenceable(16) %m_interp.i, i8 0, i64 16, i1 false)
  %6 = load ptr, ptr %this, align 8
  %m_arity = getelementptr inbounds i8, ptr %this, i64 8
  %7 = load i32, ptr %m_arity, align 8
  %m_alloc.i.i = getelementptr inbounds i8, ptr %6, i64 40
  %mul.i.i = shl i32 %7, 3
  %add.i.i = add i32 %mul.i.i, 16
  %conv.i = zext i32 %add.i.i to i64
  %call2.i = tail call noundef ptr @_ZN22small_object_allocator8allocateEm(ptr noundef nonnull align 8 dereferenceable(520) %m_alloc.i.i, i64 noundef %conv.i)
  store i8 1, ptr %call2.i, align 8
  %m_result.i.i = getelementptr inbounds i8, ptr %call2.i, i64 8
  store ptr %r, ptr %m_result.i.i, align 8
  %tobool.not.i.i.i = icmp eq ptr %r, null
  br i1 %tobool.not.i.i.i, label %_ZN11ast_manager7inc_refEP3ast.exit.i.i, label %if.then.i.i.i

if.then.i.i.i:                                    ; preds = %_ZN11func_interp18reset_interp_cacheEv.exit
  %m_ref_count.i.i.i.i = getelementptr inbounds i8, ptr %r, i64 8
  %8 = load i32, ptr %m_ref_count.i.i.i.i, align 4
  %inc.i.i.i.i = add i32 %8, 1
  store i32 %inc.i.i.i.i, ptr %m_ref_count.i.i.i.i, align 4
  br label %_ZN11ast_manager7inc_refEP3ast.exit.i.i

_ZN11ast_manager7inc_refEP3ast.exit.i.i:          ; preds = %if.then.i.i.i, %_ZN11func_interp18reset_interp_cacheEv.exit
  %cmp14.not.i.i = icmp eq i32 %7, 0
  br i1 %cmp14.not.i.i, label %_ZN10func_entry2mkER11ast_managerjPKP4exprS3_.exit, label %for.body.lr.ph.i.i

for.body.lr.ph.i.i:                               ; preds = %_ZN11ast_manager7inc_refEP3ast.exit.i.i
  %m_args.i.i = getelementptr inbounds i8, ptr %call2.i, i64 16
  %wide.trip.count.i.i = zext i32 %7 to i64
  br label %for.body.i.i

for.body.i.i:                                     ; preds = %_ZN11ast_manager7inc_refEP3ast.exit13.i.i, %for.body.lr.ph.i.i
  %indvars.iv.i.i = phi i64 [ 0, %for.body.lr.ph.i.i ], [ %indvars.iv.next.i.i, %_ZN11ast_manager7inc_refEP3ast.exit13.i.i ]
  %arrayidx.i.i = getelementptr inbounds ptr, ptr %args, i64 %indvars.iv.i.i
  %9 = load ptr, ptr %arrayidx.i.i, align 8
  %call.i.i = tail call noundef zeroext i1 @_ZNK11ast_manager8is_valueEP4expr(ptr noundef nonnull align 8 dereferenceable(976) %6, ptr noundef %9)
  br i1 %call.i.i, label %if.end.i.i, label %if.then.i.i1

if.then.i.i1:                                     ; preds = %for.body.i.i
  store i8 0, ptr %call2.i, align 8
  br label %if.end.i.i

if.end.i.i:                                       ; preds = %if.then.i.i1, %for.body.i.i
  %tobool.not.i9.i.i = icmp eq ptr %9, null
  br i1 %tobool.not.i9.i.i, label %_ZN11ast_manager7inc_refEP3ast.exit13.i.i, label %if.then.i10.i.i

if.then.i10.i.i:                                  ; preds = %if.end.i.i
  %m_ref_count.i.i11.i.i = getelementptr inbounds i8, ptr %9, i64 8
  %10 = load i32, ptr %m_ref_count.i.i11.i.i, align 4
  %inc.i.i12.i.i = add i32 %10, 1
  store i32 %inc.i.i12.i.i, ptr %m_ref_count.i.i11.i.i, align 4
  br label %_ZN11ast_manager7inc_refEP3ast.exit13.i.i

_ZN11ast_manager7inc_refEP3ast.exit13.i.i:        ; preds = %if.then.i10.i.i, %if.end.i.i
  %arrayidx4.i.i = getelementptr inbounds [0 x ptr], ptr %m_args.i.i, i64 0, i64 %indvars.iv.i.i
  store ptr %9, ptr %arrayidx4.i.i, align 8
  %indvars.iv.next.i.i = add nuw nsw i64 %indvars.iv.i.i, 1
  %exitcond.not.i.i = icmp eq i64 %indvars.iv.next.i.i, %wide.trip.count.i.i
  br i1 %exitcond.not.i.i, label %_ZN10func_entry2mkER11ast_managerjPKP4exprS3_.exit, label %for.body.i.i, !llvm.loop !4

_ZN10func_entry2mkER11ast_managerjPKP4exprS3_.exit: ; preds = %_ZN11ast_manager7inc_refEP3ast.exit13.i.i, %_ZN11ast_manager7inc_refEP3ast.exit.i.i
  %11 = load i8, ptr %call2.i, align 8
  %12 = and i8 %11, 1
  %tobool.i.not = icmp eq i8 %12, 0
  br i1 %tobool.i.not, label %if.then, label %if.end

if.then:                                          ; preds = %_ZN10func_entry2mkER11ast_managerjPKP4exprS3_.exit
  %m_args_are_values = getelementptr inbounds i8, ptr %this, i64 32
  store i8 0, ptr %m_args_are_values, align 8
  br label %if.end

if.end:                                           ; preds = %if.then, %_ZN10func_entry2mkER11ast_managerjPKP4exprS3_.exit
  %m_entries = getelementptr inbounds i8, ptr %this, i64 16
  %13 = load ptr, ptr %m_entries, align 8
  %cmp.i = icmp eq ptr %13, null
  br i1 %cmp.i, label %if.then.i, label %lor.lhs.false.i

lor.lhs.false.i:                                  ; preds = %if.end
  %arrayidx.i = getelementptr inbounds i8, ptr %13, i64 -4
  %14 = load i32, ptr %arrayidx.i, align 4
  %arrayidx4.i = getelementptr inbounds i8, ptr %13, i64 -8
  %15 = load i32, ptr %arrayidx4.i, align 4
  %cmp5.i = icmp eq i32 %14, %15
  br i1 %cmp5.i, label %if.then.i, label %_ZN6vectorIP10func_entryLb0EjE9push_backERKS1_.exit

if.then.i:                                        ; preds = %lor.lhs.false.i, %if.end
  tail call void @_ZN6vectorIP10func_entryLb0EjE13expand_vectorEv(ptr noundef nonnull align 8 dereferenceable(8) %m_entries)
  %.pre.i = load ptr, ptr %m_entries, align 8
  %arrayidx8.phi.trans.insert.i = getelementptr inbounds i8, ptr %.pre.i, i64 -4
  %.pre1.i = load i32, ptr %arrayidx8.phi.trans.insert.i, align 4
  br label %_ZN6vectorIP10func_entryLb0EjE9push_backERKS1_.exit

_ZN6vectorIP10func_entryLb0EjE9push_backERKS1_.exit: ; preds = %lor.lhs.false.i, %if.then.i
  %16 = phi i32 [ %.pre1.i, %if.then.i ], [ %14, %lor.lhs.false.i ]
  %17 = phi ptr [ %.pre.i, %if.then.i ], [ %13, %lor.lhs.false.i ]
  %idx.ext.i = zext i32 %16 to i64
  %add.ptr.i = getelementptr inbounds ptr, ptr %17, i64 %idx.ext.i
  store ptr %call2.i, ptr %add.ptr.i, align 8
  %18 = load ptr, ptr %m_entries, align 8
  %arrayidx10.i = getelementptr inbounds i8, ptr %18, i64 -4
  %19 = load i32, ptr %arrayidx10.i, align 4
  %inc.i = add i32 %19, 1
  store i32 %inc.i, ptr %arrayidx10.i, align 4
  ret void
}